Certificate:
    Data:
        Version: 3 (0x2)
        Serial Number: 0 (0x0)
    Signature Algorithm: sha256WithRSAEncryption
        Issuer: C=CN, ST=shaanxi, L=xian, O=thundersoft_it, OU=IT, CN=thundersoft/emailAddress=thundersoft.com
        Validity
            Not Before: Oct 23 09:33:12 2020 GMT
            Not After : Oct 21 09:33:12 2030 GMT
        Subject: C=CN, ST=shaanxi, O=thundersoft_it, OU=IT, CN=thundersoft_STBU5/emailAddress=thundersoft.com
        Subject Public Key Info:
            Public Key Algorithm: rsaEncryption
                Public-Key: (2048 bit)
                Modulus:
                    00:ba:f3:fa:d4:10:bb:77:08:88:5a:83:b8:25:65:
                    2e:fd:2b:98:42:4b:46:39:6e:76:fe:a2:a4:72:90:
                    5e:f3:28:a2:72:0e:4f:80:92:85:e6:3e:4d:ed:4c:
                    63:f7:45:48:97:f8:08:e5:44:d1:47:f9:35:a3:14:
                    b7:1c:93:b2:dd:d5:37:e4:fb:93:4c:0f:ab:7d:a5:
                    9e:fd:e2:c9:b5:c9:4b:5b:39:e8:2e:01:e4:eb:68:
                    fa:7e:ce:fa:a0:9c:54:08:08:00:0d:cd:26:19:e9:
                    6c:e1:24:f4:50:70:a9:2d:1b:3f:0b:ea:69:36:59:
                    b7:c6:25:d4:b0:c3:0d:4b:df:bc:39:49:cf:d6:75:
                    3b:b6:96:b2:f9:7f:42:1a:a3:90:03:cd:be:06:07:
                    d0:c8:f0:13:19:2e:bd:b4:03:bd:89:89:49:28:cc:
                    36:1e:aa:bf:9e:73:c9:8f:8f:e9:79:07:98:64:cd:
                    16:ac:77:4a:77:4d:01:b4:81:87:ab:73:d4:4c:a2:
                    04:ae:de:d5:2d:40:cf:83:dd:2b:6b:18:2e:d1:2e:
                    30:c9:4a:0c:08:8f:48:7e:52:0c:20:53:4c:95:42:
                    f2:05:d6:f7:63:38:dd:15:9e:6b:9f:3e:fd:3a:ca:
                    89:23:8a:08:21:96:8d:a0:d5:c0:a2:8e:59:fd:f3:
                    bc:53
                Exponent: 65537 (0x10001)
        X509v3 extensions:
            X509v3 Basic Constraints: 
                CA:FALSE
            X509v3 Key Usage: 
                Digital Signature, Non Repudiation, Key Encipherment
            X509v3 Subject Alternative Name: 
                DNS:thundersoft.com, DNS:*.thundersoft.com
    Signature Algorithm: sha256WithRSAEncryption
         50:77:bc:34:1d:4d:cd:80:de:69:c4:db:23:af:e9:8f:ce:fc:
         ee:cf:5a:94:a3:51:23:56:c1:4a:eb:d6:03:0c:df:dc:17:d7:
         08:96:2f:c3:a6:31:e8:2e:e0:77:14:7d:b8:3d:cd:a0:e1:e0:
         ee:f7:46:25:8a:9d:bd:50:0c:c7:eb:6d:87:dc:c4:99:08:93:
         9b:23:84:21:61:8d:b5:2c:ea:e7:5e:c4:b7:91:4b:17:37:d2:
         62:cb:8c:08:79:09:11:5e:6d:1b:a2:a8:46:06:73:87:eb:8c:
         02:e7:e9:2d:a6:10:80:0a:33:c1:9b:8a:63:21:8d:54:55:1f:
         91:9c:c8:51:41:85:69:01:29:be:b6:d5:84:fb:61:2a:0a:27:
         2e:67:4b:cd:58:49:bb:1d:8f:2b:dc:f5:19:65:9b:54:ee:17:
         e9:54:c4:07:69:eb:42:80:aa:3d:29:9e:5b:e6:ec:0a:b2:e5:
         c3:b4:1a:2d:c4:cc:eb:88:ec:1c:6e:32:fe:89:0b:aa:68:af:
         74:26:2b:2a:9f:fa:3c:42:1a:30:13:dc:e1:bc:ef:a8:80:21:
         aa:39:6d:d1:66:55:db:15:4d:7d:f9:9f:08:85:2b:9d:1e:25:
         92:84:eb:99:80:a3:74:12:d5:6b:f2:a3:fa:9e:8d:e0:56:3f:
         1c:85:c1:3e
-----BEGIN CERTIFICATE-----
MIID0TCCArmgAwIBAgIBADANBgkqhkiG9w0BAQsFADCBijELMAkGA1UEBhMCQ04x
EDAOBgNVBAgMB3NoYWFueGkxDTALBgNVBAcMBHhpYW4xFzAVBgNVBAoMDnRodW5k
ZXJzb2Z0X2l0MQswCQYDVQQLDAJJVDEUMBIGA1UEAwwLdGh1bmRlcnNvZnQxHjAc
BgkqhkiG9w0BCQEWD3RodW5kZXJzb2Z0LmNvbTAeFw0yMDEwMjMwOTMzMTJaFw0z
MDEwMjEwOTMzMTJaMIGBMQswCQYDVQQGEwJDTjEQMA4GA1UECAwHc2hhYW54aTEX
MBUGA1UECgwOdGh1bmRlcnNvZnRfaXQxCzAJBgNVBAsMAklUMRowGAYDVQQDDBF0
aHVuZGVyc29mdF9TVEJVNTEeMBwGCSqGSIb3DQEJARYPdGh1bmRlcnNvZnQuY29t
MIIBIjANBgkqhkiG9w0BAQEFAAOCAQ8AMIIBCgKCAQEAuvP61BC7dwiIWoO4JWUu
/SuYQktGOW52/qKkcpBe8yiicg5PgJKF5j5N7Uxj90VIl/gI5UTRR/k1oxS3HJOy
3dU35PuTTA+rfaWe/eLJtclLWznoLgHk62j6fs76oJxUCAgADc0mGels4ST0UHCp
LRs/C+ppNlm3xiXUsMMNS9+8OUnP1nU7tpay+X9CGqOQA82+BgfQyPATGS69tAO9
iYlJKMw2Hqq/nnPJj4/peQeYZM0WrHdKd00BtIGHq3PUTKIErt7VLUDPg90raxgu
0S4wyUoMCI9IflIMIFNMlULyBdb3YzjdFZ5rnz79OsqJI4oIIZaNoNXAoo5Z/fO8
UwIDAQABo0kwRzAJBgNVHRMEAjAAMAsGA1UdDwQEAwIF4DAtBgNVHREEJjAkgg90
aHVuZGVyc29mdC5jb22CESoudGh1bmRlcnNvZnQuY29tMA0GCSqGSIb3DQEBCwUA
A4IBAQBQd7w0HU3NgN5pxNsjr+mPzvzuz1qUo1EjVsFK69YDDN/cF9cIli/DpjHo
LuB3FH24Pc2g4eDu90Ylip29UAzH622H3MSZCJObI4QhYY21LOrnXsS3kUsXN9Ji
y4wIeQkRXm0boqhGBnOH64wC5+ktphCACjPBm4pjIY1UVR+RnMhRQYVpASm+ttWE
+2EqCicuZ0vNWEm7HY8r3PUZZZtU7hfpVMQHaetCgKo9KZ5b5uwKsuXDtBotxMzr
iOwcbjL+iQuqaK90Jisqn/o8QhowE9zhvO+ogCGqOW3RZlXbFU19+Z8IhSudHiWS
hOuZgKN0EtVr8qP6no3gVj8chcE+
-----END CERTIFICATE-----
