Certificate:
    Data:
        Version: 3 (0x2)
        Serial Number: 2 (0x2)
    Signature Algorithm: sm2sign-with-sm3
        Issuer: C=CN, ST=shaanxi, L=xian, O=thundersoft_it, OU=IT, CN=thundersoft/emailAddress=thundersoft.com
        Validity
            Not Before: Oct 23 08:11:27 2020 GMT
            Not After : Oct 16 08:11:27 2050 GMT
        Subject: C=CN, ST=shaanxi, O=thundersoft_it, OU=IT, CN=thundersoft_STBU5/emailAddress=thundersoft.com
        Subject Public Key Info:
            Public Key Algorithm: id-ecPublicKey
                Public-Key: (256 bit)
                pub:
                    04:01:d1:9d:2b:d8:46:cd:57:6f:fd:15:f9:4a:cc:
                    8c:27:8f:bd:a1:90:3e:cc:14:30:7d:83:bd:92:98:
                    77:0f:09:34:5d:a1:61:e0:72:6b:a2:5c:05:2a:ee:
                    4c:59:18:f1:38:9b:13:ff:47:76:33:a1:d6:cc:e2:
                    84:55:cc:86:68
                ASN1 OID: sm2p256v1
                NIST CURVE: SM2
        X509v3 extensions:
            X509v3 Basic Constraints: 
                CA:FALSE
            X509v3 Key Usage: 
                Key Encipherment, Data Encipherment, Key Agreement
            Netscape Comment: 
                GmSSL Generated Certificate
            X509v3 Subject Key Identifier: 
                35:D5:36:C7:00:0C:03:B2:63:3B:CF:FA:9E:94:D0:E6:64:01:50:17
            X509v3 Authority Key Identifier: 
                keyid:C3:B1:13:96:B0:CB:D1:7A:C3:48:93:86:3A:FE:9B:B3:19:99:26:40

    Signature Algorithm: sm2sign-with-sm3
         30:45:02:20:47:4d:3c:4d:1d:42:df:40:47:c1:62:e4:dd:78:
         8d:5c:86:6c:d8:b4:e4:bd:3a:0e:a4:43:82:82:9d:7c:22:f5:
         02:21:00:bc:53:97:2d:54:44:27:3a:01:97:7a:df:69:09:0c:
         8f:b8:30:2d:09:5b:89:87:b9:07:46:75:ab:58:dc:84:40
-----BEGIN CERTIFICATE-----
MIIChjCCAiygAwIBAgIBAjAKBggqgRzPVQGDdTCBijELMAkGA1UEBhMCQ04xEDAO
BgNVBAgMB3NoYWFueGkxDTALBgNVBAcMBHhpYW4xFzAVBgNVBAoMDnRodW5kZXJz
b2Z0X2l0MQswCQYDVQQLDAJJVDEUMBIGA1UEAwwLdGh1bmRlcnNvZnQxHjAcBgkq
hkiG9w0BCQEWD3RodW5kZXJzb2Z0LmNvbTAgFw0yMDEwMjMwODExMjdaGA8yMDUw
MTAxNjA4MTEyN1owgYExCzAJBgNVBAYTAkNOMRAwDgYDVQQIDAdzaGFhbnhpMRcw
FQYDVQQKDA50aHVuZGVyc29mdF9pdDELMAkGA1UECwwCSVQxGjAYBgNVBAMMEXRo
dW5kZXJzb2Z0X1NUQlU1MR4wHAYJKoZIhvcNAQkBFg90aHVuZGVyc29mdC5jb20w
WTATBgcqhkjOPQIBBggqgRzPVQGCLQNCAAQB0Z0r2EbNV2/9FflKzIwnj72hkD7M
FDB9g72SmHcPCTRdoWHgcmuiXAUq7kxZGPE4mxP/R3YzodbM4oRVzIZoo4GHMIGE
MAkGA1UdEwQCMAAwCwYDVR0PBAQDAgM4MCoGCWCGSAGG+EIBDQQdFhtHbVNTTCBH
ZW5lcmF0ZWQgQ2VydGlmaWNhdGUwHQYDVR0OBBYEFDXVNscADAOyYzvP+p6U0OZk
AVAXMB8GA1UdIwQYMBaAFMOxE5awy9F6w0iThjr+m7MZmSZAMAoGCCqBHM9VAYN1
A0gAMEUCIEdNPE0dQt9AR8Fi5N14jVyGbNi05L06DqRDgoKdfCL1AiEAvFOXLVRE
JzoBl3rfaQkMj7gwLQlbiYe5B0Z1q1jchEA=
-----END CERTIFICATE-----
