Certificate:
    Data:
        Version: 3 (0x2)
        Serial Number: 1 (0x1)
    Signature Algorithm: sm2sign-with-sm3
        Issuer: C=CN, ST=shaanxi, L=xian, O=thundersoft_it, OU=IT, CN=thundersoft/emailAddress=thundersoft.com
        Validity
            Not Before: Oct 23 08:02:59 2020 GMT
            Not After : Oct 16 08:02:59 2050 GMT
        Subject: C=CN, ST=shaanxi, O=thundersoft_it, OU=IT, CN=thundersoft_STBU5/emailAddress=thundersoft.com
        Subject Public Key Info:
            Public Key Algorithm: id-ecPublicKey
                Public-Key: (256 bit)
                pub:
                    04:be:a6:64:24:70:4d:76:51:ac:35:a7:a2:ee:98:
                    73:04:a3:ae:5d:45:b0:da:02:d7:64:6c:a0:e5:32:
                    71:3f:ce:c7:40:9c:d2:8a:13:8d:bd:c6:b0:39:ac:
                    52:01:44:e5:8b:98:58:4b:d9:b3:b8:d4:eb:8a:bb:
                    9e:f9:34:d4:13
                ASN1 OID: sm2p256v1
                NIST CURVE: SM2
        X509v3 extensions:
            X509v3 Basic Constraints: 
                CA:FALSE
            X509v3 Key Usage: 
                Digital Signature, Non Repudiation
            Netscape Comment: 
                GmSSL Generated Certificate
            X509v3 Subject Key Identifier: 
                14:A3:65:E7:61:2E:8E:9E:C3:8A:75:9D:0D:94:16:4C:DB:1C:55:95
            X509v3 Authority Key Identifier: 
                keyid:C3:B1:13:96:B0:CB:D1:7A:C3:48:93:86:3A:FE:9B:B3:19:99:26:40

    Signature Algorithm: sm2sign-with-sm3
         30:46:02:21:00:e7:83:ca:79:83:e5:9d:63:37:8b:bd:46:34:
         fe:76:42:a0:bb:5c:4a:f6:93:37:53:ef:0d:57:10:ee:2b:8b:
         01:02:21:00:d5:62:a1:eb:40:f2:ae:93:51:9b:43:8e:ef:79:
         1b:77:25:f4:b8:b7:d2:2d:1a:37:dc:66:36:3d:53:91:57:c8
-----BEGIN CERTIFICATE-----
MIIChzCCAiygAwIBAgIBATAKBggqgRzPVQGDdTCBijELMAkGA1UEBhMCQ04xEDAO
BgNVBAgMB3NoYWFueGkxDTALBgNVBAcMBHhpYW4xFzAVBgNVBAoMDnRodW5kZXJz
b2Z0X2l0MQswCQYDVQQLDAJJVDEUMBIGA1UEAwwLdGh1bmRlcnNvZnQxHjAcBgkq
hkiG9w0BCQEWD3RodW5kZXJzb2Z0LmNvbTAgFw0yMDEwMjMwODAyNTlaGA8yMDUw
MTAxNjA4MDI1OVowgYExCzAJBgNVBAYTAkNOMRAwDgYDVQQIDAdzaGFhbnhpMRcw
FQYDVQQKDA50aHVuZGVyc29mdF9pdDELMAkGA1UECwwCSVQxGjAYBgNVBAMMEXRo
dW5kZXJzb2Z0X1NUQlU1MR4wHAYJKoZIhvcNAQkBFg90aHVuZGVyc29mdC5jb20w
WTATBgcqhkjOPQIBBggqgRzPVQGCLQNCAAS+pmQkcE12Uaw1p6LumHMEo65dRbDa
AtdkbKDlMnE/zsdAnNKKE429xrA5rFIBROWLmFhL2bO41OuKu575NNQTo4GHMIGE
MAkGA1UdEwQCMAAwCwYDVR0PBAQDAgbAMCoGCWCGSAGG+EIBDQQdFhtHbVNTTCBH
ZW5lcmF0ZWQgQ2VydGlmaWNhdGUwHQYDVR0OBBYEFBSjZedhLo6ew4p1nQ2UFkzb
HFWVMB8GA1UdIwQYMBaAFMOxE5awy9F6w0iThjr+m7MZmSZAMAoGCCqBHM9VAYN1
A0kAMEYCIQDng8p5g+WdYzeLvUY0/nZCoLtcSvaTN1PvDVcQ7iuLAQIhANVioetA
8q6TUZtDju95G3cl9Li30i0aN9xmNj1TkVfI
-----END CERTIFICATE-----
